; Function Attrs: null_pointer_is_valid sspstrong uwtable
define internal fastcc void @decode_Tango_Device_4_write_attributes_4(ptr noundef %0, ptr noundef %1, ptr noundef %2, ptr noundef %3, ptr noundef %4, ptr noundef readonly captures(none) %5, i1 noundef zeroext %6) unnamed_addr #0 {
  %8 = getelementptr inbounds nuw i8, ptr %5, i64 7
  %9 = load i8, ptr %8, align 1
  switch i8 %9, label %31 [
    i8 0, label %10
    i8 1, label %26
  ]

10:                                               ; preds = %7
  %11 = tail call i32 @get_CDR_ulong(ptr noundef %0, ptr noundef %4, i1 noundef zeroext %6, i32 noundef 12)
  %12 = load i32, ptr @hf_Tango_Device_4_write_attributes_4_values_loop, align 4
  %13 = load i32, ptr %4, align 4
  %14 = add i32 %13, -4
  %15 = tail call ptr @proto_tree_add_uint(ptr noundef %2, i32 noundef %12, ptr noundef %0, i32 noundef %14, i32 noundef 4, i32 noundef %11)
  %16 = load i32, ptr %4, align 4
  %17 = load i32, ptr @ett_giop_sequence, align 4
  %18 = tail call ptr @proto_tree_add_subtree(ptr noundef %2, ptr noundef %0, i32 noundef %16, i32 noundef -1, i32 noundef %17, ptr noundef null, ptr noundef nonnull @.str.841)
  %.not = icmp eq i32 %11, 0
  br i1 %.not, label %._crit_edge, label %.lr.ph

.lr.ph:                                           ; preds = %10, %.lr.ph
  %.01 = phi i32 [ %22, %.lr.ph ], [ 0, %10 ]
  %19 = load i32, ptr %4, align 4
  %20 = load i32, ptr @ett_giop_struct, align 4
  %21 = tail call ptr @proto_tree_add_subtree(ptr noundef %18, ptr noundef %0, i32 noundef %19, i32 noundef -1, i32 noundef %20, ptr noundef null, ptr noundef nonnull @.str.796)
  tail call fastcc void @decode_Tango_AttributeValue_4_st(ptr noundef %0, ptr noundef %1, ptr noundef %21, ptr noundef %4, i1 noundef zeroext %6)
  %22 = add nuw i32 %.01, 1
  %exitcond.not = icmp eq i32 %22, %11
  br i1 %exitcond.not, label %._crit_edge, label %.lr.ph, !llvm.loop !34

._crit_edge:                                      ; preds = %.lr.ph, %10
  %23 = load i32, ptr %4, align 4
  %24 = load i32, ptr @ett_giop_union, align 4
  %25 = tail call ptr @proto_tree_add_subtree(ptr noundef %2, ptr noundef %0, i32 noundef %23, i32 noundef -1, i32 noundef %24, ptr noundef null, ptr noundef nonnull @.str.770)
  tail call fastcc void @decode_Tango_ClntIdent_un(ptr noundef %0, ptr noundef %25, ptr noundef %4, i1 noundef zeroext %6)
  br label %34

26:                                               ; preds = %7
  %27 = getelementptr inbounds nuw i8, ptr %5, i64 16
  %28 = load i32, ptr %27, align 8
  %switch = icmp ult i32 %28, 2
  br i1 %switch, label %34, label %29

29:                                               ; preds = %26
  %30 = tail call ptr (ptr, ptr, ptr, ptr, ...) @expert_add_info_format(ptr noundef %1, ptr noundef %3, ptr noundef nonnull @ei_tango_unknown_exception, ptr noundef nonnull @.str.771, i32 noundef %28)
  br label %34

31:                                               ; preds = %7
  %32 = zext i8 %9 to i32
  %33 = tail call ptr (ptr, ptr, ptr, ptr, ...) @expert_add_info_format(ptr noundef %1, ptr noundef %3, ptr noundef nonnull @ei_tango_unknown_giop_msg, ptr noundef nonnull @.str.772, i32 noundef %32)
  br label %34

34:                                               ; preds = %26, %29, %31, %._crit_edge
  ret void
}